; Function Attrs: mustprogress nounwind uwtable
define void @proj_area_destroy(ptr noundef %0) local_unnamed_addr #5 {
  %2 = icmp eq ptr %0, null
  br i1 %2, label %5, label %3

3:                                                ; preds = %1
  %4 = getelementptr inbounds i8, ptr %0, i64 40
  tail call void @_ZNSt7__cxx1112basic_stringIcSt11char_traitsIcESaIcEED1Ev(ptr noundef nonnull align 8 dereferenceable(32) %4) #33
  tail call void @_ZdlPv(ptr noundef nonnull %0) #39
  br label %5

5:                                                ; preds = %3, %1
  ret void
}